target datalayout = "e-m:e-p270:32:32-p271:32:32-p272:64:64-i64:64-i128:128-f80:128-n8:16:32:64-S128"
target triple = "x86_64-pc-linux-gnu"

%struct.ec_group_st = type { ptr, ptr, ptr, ptr, i32, i32, i32, i32, ptr, i64, ptr, [6 x i32], ptr, ptr, i32, ptr, ptr, ptr, ptr, i32, %union.anon, ptr, ptr }
%union.anon = type { ptr }

; Function Attrs: nounwind uwtable
define void @ossl_ec_GFp_mont_group_clear_finish(ptr noundef %0) #0 {
  %2 = alloca ptr, align 8
  store ptr %0, ptr %2, align 8, !tbaa !3
  %3 = load ptr, ptr %2, align 8, !tbaa !3
  %4 = getelementptr inbounds nuw %struct.ec_group_st, ptr %3, i32 0, i32 15
  %5 = load ptr, ptr %4, align 8, !tbaa !10
  call void @BN_MONT_CTX_free(ptr noundef %5)
  %6 = load ptr, ptr %2, align 8, !tbaa !3
  %7 = getelementptr inbounds nuw %struct.ec_group_st, ptr %6, i32 0, i32 15
  store ptr null, ptr %7, align 8, !tbaa !10
  %8 = load ptr, ptr %2, align 8, !tbaa !3
  %9 = getelementptr inbounds nuw %struct.ec_group_st, ptr %8, i32 0, i32 16
  %10 = load ptr, ptr %9, align 8, !tbaa !19
  call void @BN_clear_free(ptr noundef %10)
  %11 = load ptr, ptr %2, align 8, !tbaa !3
  %12 = getelementptr inbounds nuw %struct.ec_group_st, ptr %11, i32 0, i32 16
  store ptr null, ptr %12, align 8, !tbaa !19
  %13 = load ptr, ptr %2, align 8, !tbaa !3
  call void @ossl_ec_GFp_simple_group_clear_finish(ptr noundef %13)
  ret void
}