; Function Attrs: nounwind uwtable
define void @ossl_ec_GFp_mont_group_clear_finish(ptr noundef %0) #1 {
  %2 = getelementptr inbounds nuw i8, ptr %0, i64 120
  %3 = load ptr, ptr %2, align 8, !tbaa !3
  tail call void @BN_MONT_CTX_free(ptr noundef %3) #4
  store ptr null, ptr %2, align 8, !tbaa !3
  %4 = getelementptr inbounds nuw i8, ptr %0, i64 128
  %5 = load ptr, ptr %4, align 8, !tbaa !16
  tail call void @BN_clear_free(ptr noundef %5) #4
  store ptr null, ptr %4, align 8, !tbaa !16
  tail call void @ossl_ec_GFp_simple_group_clear_finish(ptr noundef %0) #4
  ret void
}